; Function Attrs: alwaysinline norecurse nounwind uwtable
define internal void @_ZNK8LightGBM16RegressionMetricINS_13TweedieMetricEE4EvalEPKdPKNS_17ObjectiveFunctionE.omp_outlined.114(ptr noalias noundef readonly captures(none) %0, ptr noalias readnone captures(none) %1, ptr noundef readonly captures(none) %2, ptr noundef nonnull align 8 captures(none) dereferenceable(8) %3, ptr noundef nonnull readonly align 8 captures(none) dereferenceable(8) %4) #15 personality ptr @__gxx_personality_v0 {
  %6 = alloca i32, align 4
  %7 = alloca i32, align 4
  %8 = alloca i32, align 4
  %9 = alloca i32, align 4
  %10 = alloca double, align 8
  %11 = alloca [1 x ptr], align 8
  %12 = getelementptr inbounds nuw i8, ptr %2, i64 8
  %13 = load i32, ptr %12, align 8, !tbaa !580
  %14 = icmp sgt i32 %13, 0
  br i1 %14, label %15, label %64

15:                                               ; preds = %5
  %16 = add nsw i32 %13, -1
  call void @llvm.lifetime.start.p0(i64 4, ptr nonnull %6) #16
  store i32 0, ptr %6, align 4, !tbaa !127
  call void @llvm.lifetime.start.p0(i64 4, ptr nonnull %7) #16
  store i32 %16, ptr %7, align 4, !tbaa !127
  call void @llvm.lifetime.start.p0(i64 4, ptr nonnull %8) #16
  store i32 1, ptr %8, align 4, !tbaa !127
  call void @llvm.lifetime.start.p0(i64 4, ptr nonnull %9) #16
  store i32 0, ptr %9, align 4, !tbaa !127
  call void @llvm.lifetime.start.p0(i64 8, ptr nonnull %10) #16
  store double 0.000000e+00, ptr %10, align 8, !tbaa !84
  %17 = load i32, ptr %0, align 4, !tbaa !127
  call void @__kmpc_for_static_init_4(ptr nonnull @1, i32 %17, i32 34, ptr nonnull %9, ptr nonnull %6, ptr nonnull %7, ptr nonnull %8, i32 1, i32 1)
  %18 = load i32, ptr %7, align 4, !tbaa !127
  %19 = call i32 @llvm.smin.i32(i32 %18, i32 %16)
  store i32 %19, ptr %7, align 4, !tbaa !127
  %20 = load i32, ptr %6, align 4, !tbaa !127
  %.not16 = icmp sgt i32 %20, %19
  br i1 %.not16, label %._crit_edge, label %.lr.ph

.lr.ph:                                           ; preds = %15
  %21 = getelementptr inbounds nuw i8, ptr %2, i64 16
  %22 = load ptr, ptr %21, align 8, !tbaa !582
  %23 = load ptr, ptr %4, align 8, !tbaa !81
  %24 = getelementptr inbounds nuw i8, ptr %2, i64 1368
  %25 = load double, ptr %24, align 8, !tbaa !586
  %26 = fsub double 1.000000e+00, %25
  %27 = fsub double 2.000000e+00, %25
  %28 = getelementptr inbounds nuw i8, ptr %2, i64 24
  %29 = load ptr, ptr %28, align 8, !tbaa !583
  %30 = sext i32 %20 to i64
  br label %31

31:                                               ; preds = %.lr.ph, %31
  %indvars.iv = phi i64 [ %30, %.lr.ph ], [ %indvars.iv.next, %31 ]
  %32 = phi double [ 0.000000e+00, %.lr.ph ], [ %52, %31 ]
  %33 = getelementptr inbounds float, ptr %22, i64 %indvars.iv
  %34 = load float, ptr %33, align 4, !tbaa !78
  %35 = getelementptr inbounds double, ptr %23, i64 %indvars.iv
  %36 = load double, ptr %35, align 8, !tbaa !84
  %37 = fcmp olt double %36, 0x3DDB7CDFE0000000
  %.0.i = select i1 %37, double 0x3DDB7CDFE0000000, double %36
  %38 = fpext float %34 to double
  %39 = call double @llvm.log.f64(double %.0.i), !tbaa !127
  %40 = fmul double %26, %39
  %41 = call double @exp(double noundef %40) #16, !tbaa !127
  %42 = fmul double %27, %39
  %43 = call double @exp(double noundef %42) #16, !tbaa !127
  %44 = fdiv double %43, %27
  %45 = fneg double %38
  %46 = fmul double %41, %45
  %47 = fdiv double %46, %26
  %48 = fadd double %47, %44
  %49 = getelementptr inbounds float, ptr %29, i64 %indvars.iv
  %50 = load float, ptr %49, align 4, !tbaa !78
  %51 = fpext float %50 to double
  %52 = call double @llvm.fmuladd.f64(double %48, double %51, double %32)
  store double %52, ptr %10, align 8, !tbaa !84
  %indvars.iv.next = add nsw i64 %indvars.iv, 1
  %53 = load i32, ptr %7, align 4, !tbaa !127
  %54 = sext i32 %53 to i64
  %.not.not = icmp slt i64 %indvars.iv, %54
  br i1 %.not.not, label %31, label %._crit_edge

._crit_edge:                                      ; preds = %31, %15
  call void @__kmpc_for_static_fini(ptr nonnull @1, i32 %17)
  store ptr %10, ptr %11, align 8
  %55 = call i32 @__kmpc_reduce_nowait(ptr nonnull @2, i32 %17, i32 1, i64 8, ptr nonnull %11, ptr nonnull @_ZNK8LightGBM16RegressionMetricINS_13TweedieMetricEE4EvalEPKdPKNS_17ObjectiveFunctionE.omp_outlined.114.omp.reduction.reduction_func, ptr nonnull @.gomp_critical_user_.reduction.var)
  switch i32 %55, label %63 [
    i32 1, label %56
    i32 2, label %60
  ]

56:                                               ; preds = %._crit_edge
  %57 = load double, ptr %3, align 8, !tbaa !84
  %58 = load double, ptr %10, align 8, !tbaa !84
  %59 = fadd double %57, %58
  store double %59, ptr %3, align 8, !tbaa !84
  call void @__kmpc_end_reduce_nowait(ptr nonnull @2, i32 %17, ptr nonnull @.gomp_critical_user_.reduction.var)
  br label %63

60:                                               ; preds = %._crit_edge
  %61 = load double, ptr %10, align 8, !tbaa !84
  %62 = atomicrmw fadd ptr %3, double %61 monotonic, align 8
  br label %63

63:                                               ; preds = %60, %56, %._crit_edge
  call void @llvm.lifetime.end.p0(i64 8, ptr nonnull %10) #16
  call void @llvm.lifetime.end.p0(i64 4, ptr nonnull %9) #16
  call void @llvm.lifetime.end.p0(i64 4, ptr nonnull %8) #16
  call void @llvm.lifetime.end.p0(i64 4, ptr nonnull %7) #16
  call void @llvm.lifetime.end.p0(i64 4, ptr nonnull %6) #16
  br label %64

64:                                               ; preds = %63, %5
  ret void
}